; Function Attrs: mustprogress uwtable
define noundef ptr @_ZN6icu_7725ScientificNumberFormatter25createSuperscriptInstanceEPNS_13DecimalFormatER10UErrorCode(ptr noundef %0, ptr noundef nonnull align 4 dereferenceable(4) %1) local_unnamed_addr #0 align 2 personality ptr @__gxx_personality_v0 {
  %3 = tail call noundef ptr @_ZN6icu_777UMemorynwEm(i64 noundef 8) #7
  %4 = icmp eq ptr %3, null
  br i1 %4, label %6, label %5

5:                                                ; preds = %2
  store ptr getelementptr inbounds nuw inrange(-16, 40) (i8, ptr @_ZTVN6icu_7725ScientificNumberFormatter16SuperscriptStyleE, i64 16), ptr %3, align 8, !tbaa !3
  br label %6

6:                                                ; preds = %5, %2
  %7 = load i32, ptr %1, align 4, !tbaa !6
  %8 = icmp slt i32 %7, 1
  br i1 %8, label %9, label %23

9:                                                ; preds = %6
  %10 = tail call noundef ptr @_ZN6icu_777UMemorynwEm(i64 noundef 88) #7
  %11 = icmp eq ptr %10, null
  br i1 %11, label %13, label %12

12:                                               ; preds = %9
  invoke void @_ZN6icu_7725ScientificNumberFormatterC1EPNS_13DecimalFormatEPNS0_5StyleER10UErrorCode(ptr noundef nonnull align 8 dereferenceable(88) %10, ptr noundef %0, ptr noundef %3, ptr noundef nonnull align 4 dereferenceable(4) %1)
          to label %20 unwind label %14

13:                                               ; preds = %9
  store i32 7, ptr %1, align 4, !tbaa !6
  br label %23

14:                                               ; preds = %12
  %15 = landingpad { ptr, i32 }
          cleanup
  tail call void @_ZN6icu_777UMemorydlEPv(ptr noundef nonnull %10) #7
  br i1 %4, label %_ZN6icu_7712LocalPointerINS_25ScientificNumberFormatter5StyleEED2Ev.exit.i, label %16

16:                                               ; preds = %14
  %17 = load ptr, ptr %3, align 8, !tbaa !3
  %18 = getelementptr inbounds nuw i8, ptr %17, i64 8
  %19 = load ptr, ptr %18, align 8
  tail call void %19(ptr noundef nonnull align 8 dereferenceable(8) %3) #7
  br label %_ZN6icu_7712LocalPointerINS_25ScientificNumberFormatter5StyleEED2Ev.exit.i

20:                                               ; preds = %12
  %21 = load i32, ptr %1, align 4, !tbaa !6
  %22 = icmp slt i32 %21, 1
  br i1 %22, label %_ZN6icu_7725ScientificNumberFormatter14createInstanceEPNS_13DecimalFormatEPNS0_5StyleER10UErrorCode.exit, label %_ZN6icu_7712LocalPointerINS_13DecimalFormatEED2Ev.exit.sink.split.i

23:                                               ; preds = %13, %6
  br i1 %4, label %_ZN6icu_7712LocalPointerINS_25ScientificNumberFormatter5StyleEED2Ev.exit19.i, label %24

24:                                               ; preds = %23
  %25 = load ptr, ptr %3, align 8, !tbaa !3
  %26 = getelementptr inbounds nuw i8, ptr %25, i64 8
  %27 = load ptr, ptr %26, align 8
  tail call void %27(ptr noundef nonnull align 8 dereferenceable(8) %3) #7
  br label %_ZN6icu_7712LocalPointerINS_25ScientificNumberFormatter5StyleEED2Ev.exit19.i

_ZN6icu_7712LocalPointerINS_25ScientificNumberFormatter5StyleEED2Ev.exit19.i: ; preds = %24, %23
  %28 = icmp eq ptr %0, null
  br i1 %28, label %_ZN6icu_7725ScientificNumberFormatter14createInstanceEPNS_13DecimalFormatEPNS0_5StyleER10UErrorCode.exit, label %_ZN6icu_7712LocalPointerINS_13DecimalFormatEED2Ev.exit.sink.split.i

_ZN6icu_7712LocalPointerINS_13DecimalFormatEED2Ev.exit.sink.split.i: ; preds = %_ZN6icu_7712LocalPointerINS_25ScientificNumberFormatter5StyleEED2Ev.exit19.i, %20
  %.sink40.i = phi ptr [ %10, %20 ], [ %0, %_ZN6icu_7712LocalPointerINS_25ScientificNumberFormatter5StyleEED2Ev.exit19.i ]
  %29 = load ptr, ptr %.sink40.i, align 8, !tbaa !3
  %30 = getelementptr inbounds nuw i8, ptr %29, i64 8
  %31 = load ptr, ptr %30, align 8
  tail call void %31(ptr noundef nonnull align 8 dereferenceable(72) %.sink40.i) #7
  br label %_ZN6icu_7725ScientificNumberFormatter14createInstanceEPNS_13DecimalFormatEPNS0_5StyleER10UErrorCode.exit

_ZN6icu_7712LocalPointerINS_25ScientificNumberFormatter5StyleEED2Ev.exit.i: ; preds = %16, %14
  %32 = icmp eq ptr %0, null
  br i1 %32, label %_ZN6icu_7712LocalPointerINS_13DecimalFormatEED2Ev.exit20.i, label %33

33:                                               ; preds = %_ZN6icu_7712LocalPointerINS_25ScientificNumberFormatter5StyleEED2Ev.exit.i
  %34 = load ptr, ptr %0, align 8, !tbaa !3
  %35 = getelementptr inbounds nuw i8, ptr %34, i64 8
  %36 = load ptr, ptr %35, align 8
  tail call void %36(ptr noundef nonnull align 8 dereferenceable(72) %0) #7
  br label %_ZN6icu_7712LocalPointerINS_13DecimalFormatEED2Ev.exit20.i

_ZN6icu_7712LocalPointerINS_13DecimalFormatEED2Ev.exit20.i: ; preds = %33, %_ZN6icu_7712LocalPointerINS_25ScientificNumberFormatter5StyleEED2Ev.exit.i
  resume { ptr, i32 } %15

_ZN6icu_7725ScientificNumberFormatter14createInstanceEPNS_13DecimalFormatEPNS0_5StyleER10UErrorCode.exit: ; preds = %20, %_ZN6icu_7712LocalPointerINS_25ScientificNumberFormatter5StyleEED2Ev.exit19.i, %_ZN6icu_7712LocalPointerINS_13DecimalFormatEED2Ev.exit.sink.split.i
  %.03336.i = phi ptr [ null, %_ZN6icu_7712LocalPointerINS_25ScientificNumberFormatter5StyleEED2Ev.exit19.i ], [ %10, %20 ], [ null, %_ZN6icu_7712LocalPointerINS_13DecimalFormatEED2Ev.exit.sink.split.i ]
  ret ptr %.03336.i
}